	.file	"/data/workspace_picalc/Emulation-SW/binary_container_1/link/int/add_point/add_point.clc.csim_cu-opt.bc"
	.file	1 "/data/workspace_picalc/Emulation-SW/binary_container_1/link/int/xo/add_point/add_point/cpu_sources/pi.cl"
	.text
.Ltext_begin:
	.data
	.section	.rodata.cst4,"aM",@progbits,4
	.align	4
.LCPI0_0:
	.long	796917760               # float 2.328306e-10
                                        #  (0x2f800000)
.LCPI0_1:
	.long	1065353216              # float 1.000000e+00
                                        #  (0x3f800000)
	.text
	.globl	add_point
	.align	16, 0x90
	.type	add_point,@function
add_point:                              # @add_point
	.cfi_startproc
.Lfunc_begin0:
	.loc	1 4 0                   # /data/workspace_picalc/Emulation-SW/binary_container_1/link/int/xo/add_point/add_point/cpu_sources/pi.cl:4:0
# BB#0:
	pushq	%rbp
.Ltmp7:
	.cfi_def_cfa_offset 16
	pushq	%r15
.Ltmp8:
	.cfi_def_cfa_offset 24
	pushq	%r14
.Ltmp9:
	.cfi_def_cfa_offset 32
	pushq	%r13
.Ltmp10:
	.cfi_def_cfa_offset 40
	pushq	%r12
.Ltmp11:
	.cfi_def_cfa_offset 48
	pushq	%rbx
.Ltmp12:
	.cfi_def_cfa_offset 56
	pushq	%rax
.Ltmp13:
	.cfi_def_cfa_offset 64
.Ltmp14:
	.cfi_offset %rbx, -56
.Ltmp15:
	.cfi_offset %r12, -48
.Ltmp16:
	.cfi_offset %r13, -40
.Ltmp17:
	.cfi_offset %r14, -32
.Ltmp18:
	.cfi_offset %r15, -24
.Ltmp19:
	.cfi_offset %rbp, -16
	#DEBUG_VALUE: add_point:prng_state <- RDX+0
	#DEBUG_VALUE: add_point:inside <- RSI+0
	movq	%rdx, %r13
.Ltmp20:
	#DEBUG_VALUE: add_point:prng_state <- R13+0
	movq	%rsi, %r14
.Ltmp21:
	#DEBUG_VALUE: add_point:inside <- R14+0
	movq	%rdi, %r15
	movl	(%rcx), %r12d
	xorl	%ebx, %ebx
.Ltmp22:
	.align	16, 0x90
.LBB0_1:                                # %kernel.loop.0.split
                                        # =>This Inner Loop Header: Depth=1
	#DEBUG_VALUE: add_point:prng_state <- R13+0
	movl	64(%r15), %ebp
	.loc	1 5 26 prologue_end     # /data/workspace_picalc/Emulation-SW/binary_container_1/link/int/xo/add_point/add_point/cpu_sources/pi.cl:5:26
.Ltmp23:
	imulq	%r12, %rbp
	addq	%rbx, %rbp
	movl	(%r13,%rbp,4), %ecx
.Ltmp24:
	#DEBUG_VALUE: add_point:state <- ECX+0
	.loc	1 8 20                  # /data/workspace_picalc/Emulation-SW/binary_container_1/link/int/xo/add_point/add_point/cpu_sources/pi.cl:8:20
	movl	%ecx, %eax
	shll	$13, %eax
	.loc	1 8 11                  # /data/workspace_picalc/Emulation-SW/binary_container_1/link/int/xo/add_point/add_point/cpu_sources/pi.cl:8:11
	xorl	%ecx, %eax
.Ltmp25:
	#DEBUG_VALUE: add_point:state <- EAX+0
	.loc	1 9 20                  # /data/workspace_picalc/Emulation-SW/binary_container_1/link/int/xo/add_point/add_point/cpu_sources/pi.cl:9:20
	movl	%eax, %ecx
	shrl	$17, %ecx
	.loc	1 9 11                  # /data/workspace_picalc/Emulation-SW/binary_container_1/link/int/xo/add_point/add_point/cpu_sources/pi.cl:9:11
	xorl	%eax, %ecx
.Ltmp26:
	#DEBUG_VALUE: add_point:state <- ECX+0
	.loc	1 10 20                 # /data/workspace_picalc/Emulation-SW/binary_container_1/link/int/xo/add_point/add_point/cpu_sources/pi.cl:10:20
	movl	%ecx, %eax
	shll	$5, %eax
	.loc	1 10 11                 # /data/workspace_picalc/Emulation-SW/binary_container_1/link/int/xo/add_point/add_point/cpu_sources/pi.cl:10:11
	xorl	%ecx, %eax
.Ltmp27:
	#DEBUG_VALUE: add_point:state <- EAX+0
	.loc	1 17 20                 # /data/workspace_picalc/Emulation-SW/binary_container_1/link/int/xo/add_point/add_point/cpu_sources/pi.cl:17:20
	movl	%eax, %ecx
	shll	$13, %ecx
	.loc	1 17 11                 # /data/workspace_picalc/Emulation-SW/binary_container_1/link/int/xo/add_point/add_point/cpu_sources/pi.cl:17:11
	xorl	%eax, %ecx
.Ltmp28:
	#DEBUG_VALUE: add_point:state <- ECX+0
	.loc	1 18 20                 # /data/workspace_picalc/Emulation-SW/binary_container_1/link/int/xo/add_point/add_point/cpu_sources/pi.cl:18:20
	movl	%ecx, %edx
	shrl	$17, %edx
	.loc	1 18 11                 # /data/workspace_picalc/Emulation-SW/binary_container_1/link/int/xo/add_point/add_point/cpu_sources/pi.cl:18:11
	xorl	%ecx, %edx
.Ltmp29:
	#DEBUG_VALUE: add_point:state <- EDX+0
	.loc	1 19 20                 # /data/workspace_picalc/Emulation-SW/binary_container_1/link/int/xo/add_point/add_point/cpu_sources/pi.cl:19:20
	movl	%edx, %ecx
	shll	$5, %ecx
	.loc	1 19 11                 # /data/workspace_picalc/Emulation-SW/binary_container_1/link/int/xo/add_point/add_point/cpu_sources/pi.cl:19:11
	xorl	%edx, %ecx
.Ltmp30:
	#DEBUG_VALUE: add_point:state <- ECX+0
	.loc	1 26 62                 # /data/workspace_picalc/Emulation-SW/binary_container_1/link/int/xo/add_point/add_point/cpu_sources/pi.cl:26:62
	movl	%ecx, (%r13,%rbp,4)
	.loc	1 23 15                 # /data/workspace_picalc/Emulation-SW/binary_container_1/link/int/xo/add_point/add_point/cpu_sources/pi.cl:23:15
	cvtsi2ssq	%rcx, %xmm1
	.loc	1 14 15                 # /data/workspace_picalc/Emulation-SW/binary_container_1/link/int/xo/add_point/add_point/cpu_sources/pi.cl:14:15
	cvtsi2ssq	%rax, %xmm0
	movss	.LCPI0_0(%rip), %xmm2
	.loc	1 23 21                 # /data/workspace_picalc/Emulation-SW/binary_container_1/link/int/xo/add_point/add_point/cpu_sources/pi.cl:23:21
	mulss	%xmm2, %xmm1
.Ltmp31:
	#DEBUG_VALUE: add_point:y <- XMM1+0
	.loc	1 14 21                 # /data/workspace_picalc/Emulation-SW/binary_container_1/link/int/xo/add_point/add_point/cpu_sources/pi.cl:14:21
	mulss	%xmm2, %xmm0
.Ltmp32:
	#DEBUG_VALUE: add_point:x <- XMM0+0
	.loc	1 29 24                 # /data/workspace_picalc/Emulation-SW/binary_container_1/link/int/xo/add_point/add_point/cpu_sources/pi.cl:29:24
	mulss	%xmm1, %xmm1
.Ltmp33:
	.loc	1 29 20                 # /data/workspace_picalc/Emulation-SW/binary_container_1/link/int/xo/add_point/add_point/cpu_sources/pi.cl:29:20
	mulss	%xmm0, %xmm0
.Ltmp34:
	addss	%xmm1, %xmm0
	.loc	1 29 9                  # /data/workspace_picalc/Emulation-SW/binary_container_1/link/int/xo/add_point/add_point/cpu_sources/pi.cl:29:9
	callq	hls_sqrt@PLT
	movss	.LCPI0_1(%rip), %xmm1
	ucomiss	%xmm0, %xmm1
	jbe	.LBB0_3
.Ltmp35:
# BB#2:                                 #   in Loop: Header=BB0_1 Depth=1
	#DEBUG_VALUE: add_point:prng_state <- R13+0
	.loc	1 30 59                 # /data/workspace_picalc/Emulation-SW/binary_container_1/link/int/xo/add_point/add_point/cpu_sources/pi.cl:30:59
	movb	$1, (%r14,%rbp)
.Ltmp36:
.LBB0_3:                                # %kernel.loop.inc0
                                        #   in Loop: Header=BB0_1 Depth=1
	#DEBUG_VALUE: add_point:prng_state <- R13+0
	.loc	1 32 1                  # /data/workspace_picalc/Emulation-SW/binary_container_1/link/int/xo/add_point/add_point/cpu_sources/pi.cl:32:1
	incq	%rbx
	cmpq	$1024, %rbx             # imm = 0x400
	jne	.LBB0_1
.Ltmp37:
# BB#4:                                 # %.split
	addq	$8, %rsp
	popq	%rbx
	popq	%r12
	popq	%r13
	popq	%r14
	popq	%r15
	popq	%rbp
	ret
.Ltmp38:
.Ltmp39:
	.size	add_point, .Ltmp39-add_point
.Lfunc_end0:
	.cfi_endproc

	.globl	__stub____xlnx_cl_single_thread_add_point
	.align	16, 0x90
	.type	__stub____xlnx_cl_single_thread_add_point,@function
__stub____xlnx_cl_single_thread_add_point: # @__stub____xlnx_cl_single_thread_add_point
	.cfi_startproc
.Lfunc_begin1:
	.loc	1 4 0                   # /data/workspace_picalc/Emulation-SW/binary_container_1/link/int/xo/add_point/add_point/cpu_sources/pi.cl:4:0
# BB#0:
	.loc	1 4 0 prologue_end      # /data/workspace_picalc/Emulation-SW/binary_container_1/link/int/xo/add_point/add_point/cpu_sources/pi.cl:4:0
	movq	24(%rdi), %rax
	movq	(%rax), %rcx
	movq	16(%rdi), %rax
	movq	(%rax), %rdx
	movq	(%rdi), %rax
	movq	8(%rdi), %rsi
	movq	(%rsi), %rsi
	movq	(%rax), %rdi
	jmp	add_point@PLT           # TAILCALL
.Ltmp40:
.Ltmp41:
	.size	__stub____xlnx_cl_single_thread_add_point, .Ltmp41-__stub____xlnx_cl_single_thread_add_point
.Lfunc_end1:
	.cfi_endproc

	.cfi_sections .debug_frame
.Ltext_end:
	.data
.Ldata_end:
	.text
.Lsection_end1:
	.section	".note.GNU-stack","",@progbits
